; Function Attrs: mustprogress uwtable
define void @_ZNK8facebook5velox8ReadFile5preadB5cxx11Emm(ptr noalias nonnull sret(%"class.std::__cxx11::basic_string") align 8 %agg.result, ptr noundef nonnull align 8 dereferenceable(16) %this, i64 noundef %offset, i64 noundef %length) unnamed_addr #0 align 2 personality ptr @__gxx_personality_v0 {
entry:
  tail call void @_ZNSt7__cxx1112basic_stringIcSt11char_traitsIcESaIcEEC1Ev(ptr noundef nonnull align 8 dereferenceable(32) %agg.result) #11
  invoke void @_ZNSt7__cxx1112basic_stringIcSt11char_traitsIcESaIcEE6resizeEm(ptr noundef nonnull align 8 dereferenceable(32) %agg.result, i64 noundef %length)
          to label %invoke.cont unwind label %lpad

invoke.cont:                                      ; preds = %entry
  %call = tail call noundef ptr @_ZNSt7__cxx1112basic_stringIcSt11char_traitsIcESaIcEE4dataEv(ptr noundef nonnull align 8 dereferenceable(32) %agg.result) #11
  %vtable = load ptr, ptr %this, align 8
  %vfn = getelementptr inbounds i8, ptr %vtable, i64 16
  %0 = load ptr, ptr %vfn, align 8
  %call3 = invoke { i64, ptr } %0(ptr noundef nonnull align 8 dereferenceable(16) %this, i64 noundef %offset, i64 noundef %length, ptr noundef %call)
          to label %invoke.cont2 unwind label %lpad

invoke.cont2:                                     ; preds = %invoke.cont
  %1 = extractvalue { i64, ptr } %call3, 0
  invoke void @_ZNSt7__cxx1112basic_stringIcSt11char_traitsIcESaIcEE6resizeEm(ptr noundef nonnull align 8 dereferenceable(32) %agg.result, i64 noundef %1)
          to label %nrvo.skipdtor unwind label %lpad

lpad:                                             ; preds = %invoke.cont2, %invoke.cont, %entry
  %2 = landingpad { ptr, i32 }
          cleanup
  tail call void @_ZNSt7__cxx1112basic_stringIcSt11char_traitsIcESaIcEED1Ev(ptr noundef nonnull align 8 dereferenceable(32) %agg.result) #11
  resume { ptr, i32 } %2

nrvo.skipdtor:                                    ; preds = %invoke.cont2
  ret void
}